(lp1
(V\u4e0d\u9519
F0.25920046053569623
tp2
a(V\u8212\u670d
F0.24093697372908157
tp3
a(V\u8d28\u91cf
F0.15007575067040571
tp4
a(V\u597d\u8bc4
F0.12459596956551174
tp5
a(V\u805a\u62e2
F0.11680216538457985
tp6
a(V\u5185\u8863
F0.11232495641074752
tp7
a(V\u559c\u6b22
F0.10763914308716344
tp8
a(V\u7a7f\u7740
F0.10560951196477218
tp9
a(V\u5b9d\u8d1d
F0.090400284914956219
tp10
a(V\u6ee1\u610f
F0.077977002984493921
tp11
a(V\u5408\u9002
F0.070928013782003835
tp12
a(V\u6536\u5230
F0.069568162317123858
tp13
a(V\u6548\u679c
F0.061639257567399054
tp14
a(V\u975e\u5e38
F0.060019994964682147
tp15
a(V\u6709\u70b9
F0.057178176151967346
tp16
a(Vhellip
F0.052634339592737424
tp17
a(V\u5c3a\u7801
F0.050367061206044297
tp18
a(V\u5356\u5bb6
F0.04943026924921734
tp19
a(V\u94a2\u5708
F0.048231381942725575
tp20
a(V\u633a\u8212\u670d
F0.047039432780055235
tp21
a(V\u7269\u6d41
F0.046713416576608255
tp22
a(V\u4e0b\u6b21
F0.04669540753285726
tp23
a(V\u8d2d\u4e70
F0.045086917502805877
tp24
a(V\u53ef\u4ee5
F0.044960088977659275
tp25
a(V\u597d\u770b
F0.044255342165197012
tp26
a(V\u7b2c\u4e8c\u6b21
F0.042633719891024983
tp27
a(V\u611f\u89c9
F0.042261387165904982
tp28
a(V\u989c\u8272
F0.040002511848612386
tp29
a(V\u5ba2\u670d
F0.036453819803588645
tp30
a(V\u8212\u9002
F0.035863431747772664
tp31
a(V\u53d1\u8d27
F0.035325283527715322
tp32
a(V\u5c31\u662f
F0.035109074412026306
tp33
a(V\u7f69\u676f
F0.033471983159786639
tp34
a(V\u6587\u80f8
F0.033389487973184119
tp35
a(V\u8bd5\u7a7f
F0.033270997586566251
tp36
a(V\u771f\u7684
F0.031083040936407576
tp37
a(V\u9762\u6599
F0.030463250219954788
tp38
a(V\u5feb\u9012
F0.029860593305108582
tp39
a(V\u8fd8\u597d
F0.026759746071785093
tp40
a(V\u6b3e\u5f0f
F0.026737171093833913
tp41
a(V\u9002\u5408
F0.026179422632124649
tp42
a(V\u6ca1\u6709
F0.026041027147417569
tp43
a(V\u8fd8\u4f1a
F0.026032758921649562
tp44
a(V\u5e97\u5bb6
F0.025644093884280156
tp45
a(V\u80a9\u5e26
F0.025597357267703867
tp46
a(V\u7279\u522b
F0.025307234383966839
tp47
a(V\u5927\u5c0f
F0.025092223507292
tp48
a(V\u7801\u6570
F0.02399228160571977
tp49
a(V\u5f88\u5feb
F0.023710839884667156
tp50
a(V\u4e00\u6837
F0.023175745248792231
tp51
a(V\u8fd9\u4e2a
F0.023124716365163042
tp52
a(V\u670d\u52a1\u6001\u5ea6
F0.023070768926342612
tp53
a(V\u4e1c\u897f
F0.022993882408659114
tp54
a(V\u5f88\u6f02\u4eae
F0.022917727021635033
tp55
a(V\u6b63\u54c1
F0.022260713607137026
tp56
a(V\u590f\u5929
F0.021998045425232145
tp57
a(V\u8fd8\u662f
F0.021814958213170112
tp58
a(V\u5305\u88c5
F0.020668943708438241
tp59
a(V\u4fbf\u5b9c
F0.02056240797497735
tp60
a(V\u503c\u5f97
F0.019871177447943547
tp61
a(V\u5408\u8eab
F0.019412336609645663
tp62
a(V\u8d85\u7ea7
F0.019284311907593235
tp63
a(V\u8d77\u6765
F0.019213634301261055
tp64
a(V\u8272\u5dee
F0.01856658784103234
tp65
a(V\u4ee5\u540e
F0.018470288943404641
tp66
a(V\u5185\u88e4
F0.018351564571622087
tp67
a(V\u5149\u987e
F0.017636936196342778
tp68
a(V\u5988\u5988
F0.017493639684439389
tp69
a(V\u505a\u5de5
F0.017302989854908687
tp70
a(V\u4ef7\u683c
F0.017291386522935541
tp71
a(V\u624b\u611f
F0.017200760988374298
tp72
a(V\u8863\u670d
F0.017049684022647713
tp73
a(V\u8c22\u8c22
F0.016562850003925437
tp74
a(V\u4e0d\u8fc7
F0.016395809344270439
tp75
a(V\u7269\u7f8e\u4ef7\u5ec9
F0.016389303511152961
tp76
a(V\u4f46\u662f
F0.016278164697563321
tp77
a(V\u4e24\u4ef6
F0.016114059606009607
tp78
a(V\u5b9e\u4f53\u5e97
F0.016052180684679142
tp79
a(V\u8fd8\u884c
F0.016026251606146971
tp80
a(V\u68d2\u68d2
F0.015831420379042699
tp81
a(V\u63a8\u8350
F0.015786527868468018
tp82
a(V\u5b9e\u60e0
F0.01529428500048167
tp83
a(V\u504f\u5c0f
F0.015174129311902379
tp84
a(V\u5f88\u68d2
F0.014954759344848311
tp85
a(V\u4e00\u5982\u65e2\u5f80
F0.014926054754077892
tp86
a(V\u56fe\u7247
F0.014835476466476342
tp87
a(V\u4e00\u4ef6
F0.01479303797681711
tp88
a(V\u4e00\u4e0b
F0.014718508845129173
tp89
a(V\u6bd4\u8f83
F0.014709699690496186
tp90
a(V\u5c0f\u80f8
F0.014661867888330689
tp91
a(V\u900f\u6c14
F0.014604395936739062
tp92
a(V\u6599\u5b50
F0.014498325293888203
tp93
a(V\u800c\u4e14
F0.014454351291939128
tp94
a(V\u5212\u7b97
F0.014267343364040869
tp95
a(V\u4e0d\u4f1a
F0.014054930203975104
tp96
a(V\u670b\u53cb
F0.013900810405290285
tp97
a(V\u633a\u4e0d\u9519
F0.013888016841399656
tp98
a(V\u4e00\u822c
F0.013572160559969631
tp99
a(V\u4e00\u70b9
F0.01355732480596258
tp100
a(V\u8d2d\u7269
F0.01343138559886236
tp101
a.