(lp1
(V\u91d1\u5e01
F0.12836651617157185
tp2
a(V\u6821\u533a
F0.081249456060643391
tp3
a(V\u8bb8\u613f
F0.061171349691462228
tp4
a(V\u795e\u5802
F0.060904674010658778
tp5
a(V\u6c42\u52a9
F0.058894346674117005
tp6
a(V2013
F0.056979861876485134
tp7
a(V\u665a\u5b89
F0.055370695110321097
tp8
a(V\u8bb0\u5f55
F0.053331425714949379
tp9
a(V\u897f\u7535
F0.050228250526626918
tp10
a(V2014
F0.04623335246148589
tp11
a(V\u7ade\u731c
F0.042174622010136428
tp12
a(V\u777f\u601d
F0.038780881801953805
tp13
a(V\u600e\u4e48
F0.036628740875095468
tp14
a(V\u6709\u6ca1\u6709
F0.033268043511658199
tp15
a(VVS
F0.032356338129943388
tp16
a(V\u5927\u795e
F0.031856654728160731
tp17
a(V\u6d41\u91cf
F0.030882475368218417
tp18
a(V\u7b7e\u5230
F0.02955290089124793
tp19
a(V\u5927\u5bb6
F0.028293060333808281
tp20
a(V\u4eca\u5929
F0.027188815810093449
tp21
a(V10
F0.027053169353411146
tp22
a(V\u4ec0\u4e48
F0.026766457478921049
tp23
a(V\u5b66\u957f
F0.025556758851690085
tp24
a(V\u540c\u5b66
F0.02539015829975113
tp25
a(V11
F0.024833781539443912
tp26
a(V\u4eba\u54c1
F0.023957228067568021
tp27
a(V\u5173\u4e8e
F0.023723937433219676
tp28
a(V12
F0.02331525303515054
tp29
a(V\u5927\u56db
F0.023187738744589122
tp30
a(V\u8003\u7814
F0.022246292152956797
tp31
a(V\u6821\u56ed\u7f51
F0.021961107942500082
tp32
a(V\u56fe\u4e66\u9986
F0.021873082751662241
tp33
a(V\u5b66\u59d0
F0.0218132298283941
tp34
a(V\u6c42\u95ee
F0.0207687975433355
tp35
a(V\u4e00\u4e0b
F0.020618851197188221
tp36
a(VNBA
F0.020581901727422469
tp37
a(V\u9009\u4fee\u8bfe
F0.019960212975333142
tp38
a(V\u5b66\u6821
F0.019321789710205952
tp39
a(V\u8001\u5e08
F0.018894121125762772
tp40
a(V\u4e3a\u4ec0\u4e48
F0.01873064083243282
tp41
a(V\u77e5\u9053
F0.018335981784807678
tp42
a(V\u79cd\u5b50
F0.018077480530693291
tp43
a(V\u6709\u4eba
F0.017261263199538808
tp44
a(V\u4e0a\u4f20
F0.017165161826507559
tp45
a(V\u660e\u5929
F0.016983400104902652
tp46
a(V\u9a7e\u6821
F0.016405325465887528
tp47
a(V\u5404\u4f4d
F0.016220443113509054
tp48
a(V\u76f4\u64ad
F0.016173607741161496
tp49
a(V\u95ee\u9898
F0.016133852314894778
tp50
a(V\u5982\u4f55
F0.015522974422391311
tp51
a(V\u4e00\u4e2a
F0.01525726764840123
tp52
a(V\u4e0b\u8f7d
F0.015212676338730574
tp53
a(V\u53ef\u4ee5
F0.014747394077414518
tp54
a(V\u9080\u8bf7
F0.014625362255942577
tp55
a(V\u516d\u7ef4
F0.01457787364121637
tp56
a(V\u5bbf\u820d
F0.014510638313126932
tp57
a(V...
F0.014367615848314211
tp58
a(V\u54ea\u91cc
F0.014027903734324698
tp59
a(V\u6709\u6728\u6709
F0.013479860722727317
tp60
a(V\u6c34\u795e
F0.013032685962433482
tp61
a(V\u4f5c\u4e1a
F0.012926329777813312
tp62
a(V\u7814\u7a76\u751f
F0.01292420629055626
tp63
a(V\u8bf7\u95ee
F0.012472307139772707
tp64
a(Voffer
F0.012335123850260005
tp65
a(V\u4e00\u5361\u901a
F0.012116024033480874
tp66
a(V\u59b9\u5b50
F0.012039364560902372
tp67
a(V\u7ed3\u679c
F0.011993907449914777
tp68
a(VBT
F0.011891246287466559
tp69
a(V\u8003\u8bd5
F0.011710007914027895
tp70
a(V\u5410\u69fd
F0.0116809884945644
tp71
a(V\u515a\u6765
F0.0116809884945644
tp72
a(V\u63a8\u8350
F0.011661673003551871
tp73
a(V\u53d1\u4e2a
F0.011634272617150623
tp74
a(V\u6bd5\u4e1a
F0.011556802162626579
tp75
a(V\u4e0d\u4e86
F0.011528401924280221
tp76
a(V\u5e16\u5b50
F0.011267119184161152
tp77
a(V\u6bd5\u8bbe
F0.01126047290876008
tp78
a(V2015
F0.010863319299944892
tp79
a(V\u89c6\u9891
F0.010706756246610346
tp80
a(V\u53f7\u697c
F0.010676423484031861
tp81
a(V\u65f6\u5019
F0.010660705066913051
tp82
a(V\u624b\u673a
F0.010625704792227218
tp83
a(V\u4f60\u4eec
F0.01057629043655006
tp84
a(V\u73b0\u5728
F0.010469276925164006
tp85
a(V\u901a\u9662
F0.010442803714140572
tp86
a(V\u65e5\u7231
F0.010232545921238413
tp87
a(V\u7ec8\u4e8e
F0.010225638327242588
tp88
a(V\u8dea\u6c42
F0.010223273953764078
tp89
a(V\u65e5\u8003
F0.010162459990271027
tp90
a(V\u5c0f\u4f19\u4f34
F0.01015560792186708
tp91
a(V\u65e5\u6c34
F0.010069012082314512
tp92
a(V\u4e01\u9999
F0.010036188479910009
tp93
a(V\u554a\u554a\u554a
F0.010007105746161468
tp94
a(V\u5e2e\u5fd9
F0.0098074076903665874
tp95
a(V\u7535\u5f71
F0.0097841306583170834
tp96
a(V\u8054\u7cfb\u65b9\u5f0f
F0.0097325526030721757
tp97
a(V\u7535\u8111
F0.0096164054695594848
tp98
a(V\u600e\u4e48\u529e
F0.00960505172253006
tp99
a(V\u6700\u8fd1
F0.0095800160285967502
tp100
a(V\u7af9\u56ed
F0.0094618252361346761
tp101
a.